; Function Attrs: mustprogress uwtable
define hidden void @_ZN6google8protobuf14ServiceOptions8CopyFromERKS1_(ptr noundef nonnull align 8 dereferenceable(80) %0, ptr noundef nonnull align 8 dereferenceable(80) %1) local_unnamed_addr #3 align 2 personality ptr @__gxx_personality_v0 {
  %3 = icmp eq ptr %1, %0
  br i1 %3, label %23, label %4

4:                                                ; preds = %2
  %5 = getelementptr inbounds nuw i8, ptr %0, i64 16
  tail call void @_ZN6google8protobuf8internal12ExtensionSet5ClearEv(ptr noundef nonnull align 8 dereferenceable(24) %5)
  %6 = getelementptr inbounds nuw i8, ptr %0, i64 56
  %7 = load i32, ptr %6, align 8, !tbaa !22
  %8 = icmp sgt i32 %7, 0
  br i1 %8, label %9, label %_ZN6google8protobuf16RepeatedPtrFieldINS0_19UninterpretedOptionEE5ClearEv.exit.i

9:                                                ; preds = %4
  %10 = getelementptr inbounds nuw i8, ptr %0, i64 64
  %11 = load ptr, ptr %10, align 8, !tbaa !18
  %12 = getelementptr inbounds nuw i8, ptr %11, i64 8
  %wide.trip.count.i.i.i = zext nneg i32 %7 to i64
  br label %13

13:                                               ; preds = %13, %9
  %indvars.iv.i.i.i = phi i64 [ %indvars.iv.next.i.i.i, %13 ], [ 0, %9 ]
  %indvars.iv.next.i.i.i = add nuw nsw i64 %indvars.iv.i.i.i, 1
  %14 = getelementptr inbounds nuw ptr, ptr %12, i64 %indvars.iv.i.i.i
  %15 = load ptr, ptr %14, align 8, !tbaa !27
  tail call void @_ZN6google8protobuf19UninterpretedOption5ClearEv(ptr noundef nonnull align 8 dereferenceable(96) %15)
  %exitcond.not.i.i.i = icmp eq i64 %indvars.iv.next.i.i.i, %wide.trip.count.i.i.i
  br i1 %exitcond.not.i.i.i, label %16, label %13, !llvm.loop !94

16:                                               ; preds = %13
  store i32 0, ptr %6, align 8, !tbaa !22
  br label %_ZN6google8protobuf16RepeatedPtrFieldINS0_19UninterpretedOptionEE5ClearEv.exit.i

_ZN6google8protobuf16RepeatedPtrFieldINS0_19UninterpretedOptionEE5ClearEv.exit.i: ; preds = %16, %4
  %17 = getelementptr inbounds nuw i8, ptr %0, i64 72
  store i8 0, ptr %17, align 8, !tbaa !347
  %18 = getelementptr inbounds nuw i8, ptr %0, i64 40
  store i32 0, ptr %18, align 8
  %19 = getelementptr inbounds nuw i8, ptr %0, i64 8
  %20 = load i64, ptr %19, align 8, !tbaa !8
  %21 = and i64 %20, 1
  %.not.i = icmp eq i64 %21, 0
  br i1 %.not.i, label %_ZN6google8protobuf14ServiceOptions5ClearEv.exit, label %22

22:                                               ; preds = %_ZN6google8protobuf16RepeatedPtrFieldINS0_19UninterpretedOptionEE5ClearEv.exit.i
  tail call void @_ZN6google8protobuf8internal16InternalMetadata7DoClearINS0_15UnknownFieldSetEEEvv(ptr noundef nonnull align 8 dereferenceable(8) %19)
  br label %_ZN6google8protobuf14ServiceOptions5ClearEv.exit

_ZN6google8protobuf14ServiceOptions5ClearEv.exit: ; preds = %_ZN6google8protobuf16RepeatedPtrFieldINS0_19UninterpretedOptionEE5ClearEv.exit.i, %22
  tail call void @_ZN6google8protobuf14ServiceOptions9MergeFromERKS1_(ptr noundef nonnull align 8 dereferenceable(80) %0, ptr noundef nonnull align 8 dereferenceable(80) %1)
  br label %23

23:                                               ; preds = %2, %_ZN6google8protobuf14ServiceOptions5ClearEv.exit
  ret void
}